target datalayout = "e-m:e-p270:32:32-p271:32:32-p272:64:64-i64:64-i128:128-f80:128-n8:16:32:64-S128"
target triple = "x86_64-pc-linux-gnu"

%struct.lookup_dir_st = type { ptr, ptr }
%struct.lookup_dir_entry_st = type { ptr, i32, ptr }

@.str.1 = private unnamed_addr constant [124 x i8] c"generated/home/dtcxzyw/WorkSpace/Projects/compilers/llvm-opt-benchmark/bench/libquic/libquic/boringssl/crypto/x509/by_dir.c\00", align 1

; Function Attrs: nounwind uwtable
define internal void @by_dir_entry_free(ptr noundef %0) #0 {
  %2 = alloca ptr, align 8
  store ptr %0, ptr %2, align 8, !tbaa !38
  %3 = load ptr, ptr %2, align 8, !tbaa !38
  %4 = getelementptr inbounds nuw %struct.lookup_dir_entry_st, ptr %3, i32 0, i32 0
  %5 = load ptr, ptr %4, align 8, !tbaa !40
  %6 = icmp ne ptr %5, null
  br i1 %6, label %7, label %11

7:                                                ; preds = %1
  %8 = load ptr, ptr %2, align 8, !tbaa !38
  %9 = getelementptr inbounds nuw %struct.lookup_dir_entry_st, ptr %8, i32 0, i32 0
  %10 = load ptr, ptr %9, align 8, !tbaa !40
  call void @free(ptr noundef %10) #7
  br label %11

11:                                               ; preds = %7, %1
  %12 = load ptr, ptr %2, align 8, !tbaa !38
  %13 = getelementptr inbounds nuw %struct.lookup_dir_entry_st, ptr %12, i32 0, i32 2
  %14 = load ptr, ptr %13, align 8, !tbaa !43
  %15 = icmp ne ptr %14, null
  br i1 %15, label %16, label %20

16:                                               ; preds = %11
  %17 = load ptr, ptr %2, align 8, !tbaa !38
  %18 = getelementptr inbounds nuw %struct.lookup_dir_entry_st, ptr %17, i32 0, i32 2
  %19 = load ptr, ptr %18, align 8, !tbaa !43
  call void @sk_pop_free(ptr noundef %19, ptr noundef @by_dir_hash_free)
  br label %20

20:                                               ; preds = %16, %11
  %21 = load ptr, ptr %2, align 8, !tbaa !38
  call void @free(ptr noundef %21) #7
  ret void
}

; Function Attrs: nounwind uwtable
define internal i32 @add_cert_dir(ptr noundef %0, ptr noundef %1, i32 noundef %2) #0 {
  %4 = alloca i32, align 4
  %5 = alloca ptr, align 8
  %6 = alloca ptr, align 8
  %7 = alloca i32, align 4
  %8 = alloca i64, align 8
  %9 = alloca i64, align 8
  %10 = alloca ptr, align 8
  %11 = alloca ptr, align 8
  %12 = alloca ptr, align 8
  %13 = alloca i32, align 4
  %14 = alloca ptr, align 8
  store ptr %0, ptr %5, align 8, !tbaa !11
  store ptr %1, ptr %6, align 8, !tbaa !25
  store i32 %2, ptr %7, align 4, !tbaa !24
  call void @llvm.lifetime.start.p0(i64 8, ptr %8) #7
  call void @llvm.lifetime.start.p0(i64 8, ptr %9) #7
  call void @llvm.lifetime.start.p0(i64 8, ptr %10) #7
  call void @llvm.lifetime.start.p0(i64 8, ptr %11) #7
  call void @llvm.lifetime.start.p0(i64 8, ptr %12) #7
  %15 = load ptr, ptr %6, align 8, !tbaa !25
  %16 = icmp eq ptr %15, null
  br i1 %16, label %21, label %17

17:                                               ; preds = %3
  %18 = load ptr, ptr %6, align 8, !tbaa !25
  %19 = load i8, ptr %18, align 1, !tbaa !37
  %20 = icmp ne i8 %19, 0
  br i1 %20, label %22, label %21

21:                                               ; preds = %17, %3
  call void @ERR_put_error(i32 noundef 11, i32 noundef 0, i32 noundef 110, ptr noundef @.str.1, i32 noundef 199)
  store i32 0, ptr %4, align 4
  store i32 1, ptr %13, align 4
  br label %163

22:                                               ; preds = %17
  %23 = load ptr, ptr %6, align 8, !tbaa !25
  store ptr %23, ptr %10, align 8, !tbaa !25
  %24 = load ptr, ptr %10, align 8, !tbaa !25
  store ptr %24, ptr %12, align 8, !tbaa !25
  br label %25

25:                                               ; preds = %156, %22
  %26 = load ptr, ptr %12, align 8, !tbaa !25
  %27 = load i8, ptr %26, align 1, !tbaa !37
  %28 = sext i8 %27 to i32
  %29 = icmp eq i32 %28, 58
  br i1 %29, label %35, label %30

30:                                               ; preds = %25
  %31 = load ptr, ptr %12, align 8, !tbaa !25
  %32 = load i8, ptr %31, align 1, !tbaa !37
  %33 = sext i8 %32 to i32
  %34 = icmp eq i32 %33, 0
  br i1 %34, label %35, label %155

35:                                               ; preds = %30, %25
  call void @llvm.lifetime.start.p0(i64 8, ptr %14) #7
  %36 = load ptr, ptr %10, align 8, !tbaa !25
  store ptr %36, ptr %11, align 8, !tbaa !25
  %37 = load ptr, ptr %12, align 8, !tbaa !25
  %38 = getelementptr inbounds i8, ptr %37, i64 1
  store ptr %38, ptr %10, align 8, !tbaa !25
  %39 = load ptr, ptr %12, align 8, !tbaa !25
  %40 = load ptr, ptr %11, align 8, !tbaa !25
  %41 = ptrtoint ptr %39 to i64
  %42 = ptrtoint ptr %40 to i64
  %43 = sub i64 %41, %42
  store i64 %43, ptr %9, align 8, !tbaa !26
  %44 = load i64, ptr %9, align 8, !tbaa !26
  %45 = icmp eq i64 %44, 0
  br i1 %45, label %46, label %47

46:                                               ; preds = %35
  store i32 3, ptr %13, align 4
  br label %152

47:                                               ; preds = %35
  store i64 0, ptr %8, align 8, !tbaa !26
  br label %48

48:                                               ; preds = %77, %47
  %49 = load i64, ptr %8, align 8, !tbaa !26
  %50 = load ptr, ptr %5, align 8, !tbaa !11
  %51 = getelementptr inbounds nuw %struct.lookup_dir_st, ptr %50, i32 0, i32 1
  %52 = load ptr, ptr %51, align 8, !tbaa !17
  %53 = call i64 @sk_num(ptr noundef %52)
  %54 = icmp ult i64 %49, %53
  br i1 %54, label %55, label %80

55:                                               ; preds = %48
  %56 = load ptr, ptr %5, align 8, !tbaa !11
  %57 = getelementptr inbounds nuw %struct.lookup_dir_st, ptr %56, i32 0, i32 1
  %58 = load ptr, ptr %57, align 8, !tbaa !17
  %59 = load i64, ptr %8, align 8, !tbaa !26
  %60 = call ptr @sk_value(ptr noundef %58, i64 noundef %59)
  store ptr %60, ptr %14, align 8, !tbaa !38
  %61 = load ptr, ptr %14, align 8, !tbaa !38
  %62 = getelementptr inbounds nuw %struct.lookup_dir_entry_st, ptr %61, i32 0, i32 0
  %63 = load ptr, ptr %62, align 8, !tbaa !40
  %64 = call i64 @strlen(ptr noundef %63) #9
  %65 = load i64, ptr %9, align 8, !tbaa !26
  %66 = icmp eq i64 %64, %65
  br i1 %66, label %67, label %76

67:                                               ; preds = %55
  %68 = load ptr, ptr %14, align 8, !tbaa !38
  %69 = getelementptr inbounds nuw %struct.lookup_dir_entry_st, ptr %68, i32 0, i32 0
  %70 = load ptr, ptr %69, align 8, !tbaa !40
  %71 = load ptr, ptr %11, align 8, !tbaa !25
  %72 = load i64, ptr %9, align 8, !tbaa !26
  %73 = call i32 @strncmp(ptr noundef %70, ptr noundef %71, i64 noundef %72) #9
  %74 = icmp eq i32 %73, 0
  br i1 %74, label %75, label %76

75:                                               ; preds = %67
  br label %80

76:                                               ; preds = %67, %55
  br label %77

77:                                               ; preds = %76
  %78 = load i64, ptr %8, align 8, !tbaa !26
  %79 = add i64 %78, 1
  store i64 %79, ptr %8, align 8, !tbaa !26
  br label %48, !llvm.loop !62

80:                                               ; preds = %75, %48
  %81 = load i64, ptr %8, align 8, !tbaa !26
  %82 = load ptr, ptr %5, align 8, !tbaa !11
  %83 = getelementptr inbounds nuw %struct.lookup_dir_st, ptr %82, i32 0, i32 1
  %84 = load ptr, ptr %83, align 8, !tbaa !17
  %85 = call i64 @sk_num(ptr noundef %84)
  %86 = icmp ult i64 %81, %85
  br i1 %86, label %87, label %88

87:                                               ; preds = %80
  store i32 3, ptr %13, align 4
  br label %152

88:                                               ; preds = %80
  %89 = load ptr, ptr %5, align 8, !tbaa !11
  %90 = getelementptr inbounds nuw %struct.lookup_dir_st, ptr %89, i32 0, i32 1
  %91 = load ptr, ptr %90, align 8, !tbaa !17
  %92 = icmp eq ptr %91, null
  br i1 %92, label %93, label %103

93:                                               ; preds = %88
  %94 = call ptr @sk_new_null()
  %95 = load ptr, ptr %5, align 8, !tbaa !11
  %96 = getelementptr inbounds nuw %struct.lookup_dir_st, ptr %95, i32 0, i32 1
  store ptr %94, ptr %96, align 8, !tbaa !17
  %97 = load ptr, ptr %5, align 8, !tbaa !11
  %98 = getelementptr inbounds nuw %struct.lookup_dir_st, ptr %97, i32 0, i32 1
  %99 = load ptr, ptr %98, align 8, !tbaa !17
  %100 = icmp ne ptr %99, null
  br i1 %100, label %102, label %101

101:                                              ; preds = %93
  call void @ERR_put_error(i32 noundef 11, i32 noundef 0, i32 noundef 65, ptr noundef @.str.1, i32 noundef 224)
  store i32 0, ptr %4, align 4
  store i32 1, ptr %13, align 4
  br label %152

102:                                              ; preds = %93
  br label %103

103:                                              ; preds = %102, %88
  %104 = call noalias ptr @malloc(i64 noundef 24) #8
  store ptr %104, ptr %14, align 8, !tbaa !38
  %105 = load ptr, ptr %14, align 8, !tbaa !38
  %106 = icmp ne ptr %105, null
  br i1 %106, label %108, label %107

107:                                              ; preds = %103
  store i32 0, ptr %4, align 4
  store i32 1, ptr %13, align 4
  br label %152

108:                                              ; preds = %103
  %109 = load i32, ptr %7, align 4, !tbaa !24
  %110 = load ptr, ptr %14, align 8, !tbaa !38
  %111 = getelementptr inbounds nuw %struct.lookup_dir_entry_st, ptr %110, i32 0, i32 1
  store i32 %109, ptr %111, align 8, !tbaa !52
  %112 = call ptr @sk_new(ptr noundef @by_dir_hash_cmp)
  %113 = load ptr, ptr %14, align 8, !tbaa !38
  %114 = getelementptr inbounds nuw %struct.lookup_dir_entry_st, ptr %113, i32 0, i32 2
  store ptr %112, ptr %114, align 8, !tbaa !43
  %115 = load i64, ptr %9, align 8, !tbaa !26
  %116 = add i64 %115, 1
  %117 = call noalias ptr @malloc(i64 noundef %116) #8
  %118 = load ptr, ptr %14, align 8, !tbaa !38
  %119 = getelementptr inbounds nuw %struct.lookup_dir_entry_st, ptr %118, i32 0, i32 0
  store ptr %117, ptr %119, align 8, !tbaa !40
  %120 = load ptr, ptr %14, align 8, !tbaa !38
  %121 = getelementptr inbounds nuw %struct.lookup_dir_entry_st, ptr %120, i32 0, i32 0
  %122 = load ptr, ptr %121, align 8, !tbaa !40
  %123 = icmp ne ptr %122, null
  br i1 %123, label %124, label %129

124:                                              ; preds = %108
  %125 = load ptr, ptr %14, align 8, !tbaa !38
  %126 = getelementptr inbounds nuw %struct.lookup_dir_entry_st, ptr %125, i32 0, i32 2
  %127 = load ptr, ptr %126, align 8, !tbaa !43
  %128 = icmp ne ptr %127, null
  br i1 %128, label %131, label %129

129:                                              ; preds = %124, %108
  %130 = load ptr, ptr %14, align 8, !tbaa !38
  call void @by_dir_entry_free(ptr noundef %130)
  store i32 0, ptr %4, align 4
  store i32 1, ptr %13, align 4
  br label %152

131:                                              ; preds = %124
  %132 = load ptr, ptr %14, align 8, !tbaa !38
  %133 = getelementptr inbounds nuw %struct.lookup_dir_entry_st, ptr %132, i32 0, i32 0
  %134 = load ptr, ptr %133, align 8, !tbaa !40
  %135 = load ptr, ptr %11, align 8, !tbaa !25
  %136 = load i64, ptr %9, align 8, !tbaa !26
  %137 = call ptr @strncpy(ptr noundef %134, ptr noundef %135, i64 noundef %136) #7
  %138 = load ptr, ptr %14, align 8, !tbaa !38
  %139 = getelementptr inbounds nuw %struct.lookup_dir_entry_st, ptr %138, i32 0, i32 0
  %140 = load ptr, ptr %139, align 8, !tbaa !40
  %141 = load i64, ptr %9, align 8, !tbaa !26
  %142 = getelementptr inbounds nuw i8, ptr %140, i64 %141
  store i8 0, ptr %142, align 1, !tbaa !37
  %143 = load ptr, ptr %5, align 8, !tbaa !11
  %144 = getelementptr inbounds nuw %struct.lookup_dir_st, ptr %143, i32 0, i32 1
  %145 = load ptr, ptr %144, align 8, !tbaa !17
  %146 = load ptr, ptr %14, align 8, !tbaa !38
  %147 = call i64 @sk_push(ptr noundef %145, ptr noundef %146)
  %148 = icmp ne i64 %147, 0
  br i1 %148, label %151, label %149

149:                                              ; preds = %131
  %150 = load ptr, ptr %14, align 8, !tbaa !38
  call void @by_dir_entry_free(ptr noundef %150)
  store i32 0, ptr %4, align 4
  store i32 1, ptr %13, align 4
  br label %152

151:                                              ; preds = %131
  store i32 0, ptr %13, align 4
  br label %152

152:                                              ; preds = %151, %149, %129, %107, %101, %87, %46
  call void @llvm.lifetime.end.p0(i64 8, ptr %14) #7
  %153 = load i32, ptr %13, align 4
  switch i32 %153, label %163 [
    i32 0, label %154
    i32 3, label %156
  ]

154:                                              ; preds = %152
  br label %155

155:                                              ; preds = %154, %30
  br label %156

156:                                              ; preds = %155, %152
  %157 = load ptr, ptr %12, align 8, !tbaa !25
  %158 = getelementptr inbounds nuw i8, ptr %157, i32 1
  store ptr %158, ptr %12, align 8, !tbaa !25
  %159 = load i8, ptr %157, align 1, !tbaa !37
  %160 = sext i8 %159 to i32
  %161 = icmp ne i32 %160, 0
  br i1 %161, label %25, label %162, !llvm.loop !63

162:                                              ; preds = %156
  store i32 1, ptr %4, align 4
  store i32 1, ptr %13, align 4
  br label %163

163:                                              ; preds = %162, %152, %21
  call void @llvm.lifetime.end.p0(i64 8, ptr %12) #7
  call void @llvm.lifetime.end.p0(i64 8, ptr %11) #7
  call void @llvm.lifetime.end.p0(i64 8, ptr %10) #7
  call void @llvm.lifetime.end.p0(i64 8, ptr %9) #7
  call void @llvm.lifetime.end.p0(i64 8, ptr %8) #7
  %164 = load i32, ptr %4, align 4
  ret i32 %164
}