; Function Attrs: nounwind uwtable
define internal fastcc range(i32 0, 2) i32 @add_cert_dir(ptr noundef captures(none) %0, ptr noundef %1, i32 noundef %2) unnamed_addr #1 {
  %4 = icmp eq ptr %1, null
  br i1 %4, label %8, label %5

5:                                                ; preds = %3
  %6 = load i8, ptr %1, align 1, !tbaa !22
  %.not = icmp eq i8 %6, 0
  br i1 %.not, label %8, label %.preheader68

.preheader68:                                     ; preds = %5
  %7 = getelementptr inbounds nuw i8, ptr %0, i64 8
  br label %10

8:                                                ; preds = %5, %3
  tail call void @ERR_put_error(i32 noundef 11, i32 noundef 0, i32 noundef 110, ptr noundef nonnull @.str.1, i32 noundef 199) #14
  br label %.thread66

thread-pre-split:                                 ; preds = %65
  %9 = getelementptr inbounds nuw i8, ptr %.045, i64 1
  %.pr = load i8, ptr %9, align 1, !tbaa !22
  br label %10

10:                                               ; preds = %.preheader68, %thread-pre-split
  %11 = phi i8 [ %.pr, %thread-pre-split ], [ %6, %.preheader68 ]
  %.047 = phi ptr [ %.148, %thread-pre-split ], [ %1, %.preheader68 ]
  %.045 = phi ptr [ %9, %thread-pre-split ], [ %1, %.preheader68 ]
  switch i8 %11, label %65 [
    i8 58, label %12
    i8 0, label %12
  ]

12:                                               ; preds = %10, %10
  %13 = getelementptr inbounds nuw i8, ptr %.045, i64 1
  %14 = ptrtoint ptr %.045 to i64
  %15 = ptrtoint ptr %.047 to i64
  %16 = sub i64 %14, %15
  %17 = icmp eq ptr %.045, %.047
  br i1 %17, label %65, label %.preheader

.preheader:                                       ; preds = %12
  %18 = load ptr, ptr %7, align 8, !tbaa !13
  %19 = tail call i64 @sk_num(ptr noundef %18) #14
  %.not86 = icmp eq i64 %19, 0
  br i1 %.not86, label %._crit_edge, label %.lr.ph

.lr.ph:                                           ; preds = %.preheader, %28
  %.04981 = phi i64 [ %29, %28 ], [ 0, %.preheader ]
  %20 = load ptr, ptr %7, align 8, !tbaa !13
  %21 = tail call ptr @sk_value(ptr noundef %20, i64 noundef %.04981) #14
  %22 = load ptr, ptr %21, align 8, !tbaa !23
  %23 = tail call i64 @strlen(ptr noundef nonnull dereferenceable(1) %22) #15
  %24 = icmp eq i64 %23, %16
  br i1 %24, label %25, label %28

25:                                               ; preds = %.lr.ph
  %26 = tail call i32 @strncmp(ptr noundef nonnull %22, ptr noundef %.047, i64 noundef %16) #15
  %27 = icmp eq i32 %26, 0
  br i1 %27, label %._crit_edge, label %28

28:                                               ; preds = %.lr.ph, %25
  %29 = add nuw i64 %.04981, 1
  %30 = load ptr, ptr %7, align 8, !tbaa !13
  %31 = tail call i64 @sk_num(ptr noundef %30) #14
  %32 = icmp ult i64 %29, %31
  br i1 %32, label %.lr.ph, label %._crit_edge, !llvm.loop !45

._crit_edge:                                      ; preds = %28, %25, %.preheader
  %.049.lcssa = phi i64 [ 0, %.preheader ], [ %.04981, %25 ], [ %29, %28 ]
  %33 = load ptr, ptr %7, align 8, !tbaa !13
  %34 = tail call i64 @sk_num(ptr noundef %33) #14
  %35 = icmp ult i64 %.049.lcssa, %34
  br i1 %35, label %65, label %36

36:                                               ; preds = %._crit_edge
  %37 = load ptr, ptr %7, align 8, !tbaa !13
  %38 = icmp eq ptr %37, null
  br i1 %38, label %39, label %42

39:                                               ; preds = %36
  %40 = tail call ptr @sk_new_null() #14
  store ptr %40, ptr %7, align 8, !tbaa !13
  %.not55 = icmp eq ptr %40, null
  br i1 %.not55, label %41, label %42

41:                                               ; preds = %39
  tail call void @ERR_put_error(i32 noundef 11, i32 noundef 0, i32 noundef 65, ptr noundef nonnull @.str.1, i32 noundef 224) #14
  br label %.thread66

42:                                               ; preds = %39, %36
  %43 = tail call noalias dereferenceable_or_null(24) ptr @malloc(i64 noundef 24) #13
  %.not56 = icmp eq ptr %43, null
  br i1 %.not56, label %.thread66, label %44

44:                                               ; preds = %42
  %45 = getelementptr inbounds nuw i8, ptr %43, i64 8
  store i32 %2, ptr %45, align 8, !tbaa !35
  %46 = tail call ptr @sk_new(ptr noundef nonnull @by_dir_hash_cmp) #14
  %47 = getelementptr inbounds nuw i8, ptr %43, i64 16
  store ptr %46, ptr %47, align 8, !tbaa !26
  %48 = add i64 %16, 1
  %49 = tail call noalias ptr @malloc(i64 noundef %48) #13
  store ptr %49, ptr %43, align 8, !tbaa !23
  %.not57 = icmp eq ptr %49, null
  %.not6.i = icmp eq ptr %46, null
  br i1 %.not57, label %51, label %50

50:                                               ; preds = %44
  br i1 %.not6.i, label %.thread64, label %53

.thread64:                                        ; preds = %50
  tail call void @free(ptr noundef nonnull %49) #14
  br label %by_dir_entry_free.exit

51:                                               ; preds = %44
  br i1 %.not6.i, label %by_dir_entry_free.exit, label %52

52:                                               ; preds = %51
  tail call void @sk_pop_free(ptr noundef nonnull %46, ptr noundef nonnull @by_dir_hash_free) #14
  br label %by_dir_entry_free.exit

by_dir_entry_free.exit:                           ; preds = %.thread64, %51, %52
  tail call void @free(ptr noundef nonnull %43) #14
  br label %.thread66

53:                                               ; preds = %50
  %54 = tail call ptr @strncpy(ptr noundef nonnull %49, ptr noundef %.047, i64 noundef %16) #14
  %55 = getelementptr inbounds nuw i8, ptr %49, i64 %16
  store i8 0, ptr %55, align 1, !tbaa !22
  %56 = load ptr, ptr %7, align 8, !tbaa !13
  %57 = tail call i64 @sk_push(ptr noundef %56, ptr noundef nonnull %43) #14
  %.not59 = icmp eq i64 %57, 0
  br i1 %.not59, label %58, label %65

58:                                               ; preds = %53
  %59 = getelementptr inbounds nuw i8, ptr %43, i64 16
  %60 = load ptr, ptr %43, align 8, !tbaa !23
  %.not.i61 = icmp eq ptr %60, null
  br i1 %.not.i61, label %62, label %61

61:                                               ; preds = %58
  tail call void @free(ptr noundef nonnull %60) #14
  br label %62

62:                                               ; preds = %61, %58
  %63 = load ptr, ptr %59, align 8, !tbaa !26
  %.not6.i62 = icmp eq ptr %63, null
  br i1 %.not6.i62, label %by_dir_entry_free.exit63, label %64

64:                                               ; preds = %62
  tail call void @sk_pop_free(ptr noundef nonnull %63, ptr noundef nonnull @by_dir_hash_free) #14
  br label %by_dir_entry_free.exit63

by_dir_entry_free.exit63:                         ; preds = %62, %64
  tail call void @free(ptr noundef nonnull %43) #14
  br label %.thread66

65:                                               ; preds = %12, %._crit_edge, %53, %10
  %.148 = phi ptr [ %.047, %10 ], [ %13, %53 ], [ %13, %._crit_edge ], [ %13, %12 ]
  %66 = load i8, ptr %.045, align 1, !tbaa !22
  %.not60 = icmp eq i8 %66, 0
  br i1 %.not60, label %.thread66, label %thread-pre-split, !llvm.loop !46

.thread66:                                        ; preds = %42, %65, %41, %by_dir_entry_free.exit, %by_dir_entry_free.exit63, %8
  %.046 = phi i32 [ 0, %8 ], [ 0, %by_dir_entry_free.exit63 ], [ 0, %by_dir_entry_free.exit ], [ 0, %41 ], [ 0, %42 ], [ 1, %65 ]
  ret i32 %.046
}